; Function Attrs: null_pointer_is_valid sspstrong uwtable
define hidden void @nvme_add_data_tr_pkt(ptr noundef readonly captures(none) %0, ptr noundef %1, i32 noundef %2, i32 noundef %3) local_unnamed_addr #0 {
  %5 = alloca i32, align 4
  %6 = alloca i32, align 4
  %7 = alloca [3 x %struct._wmem_tree_key_t], align 16
  store i32 %2, ptr %5, align 4
  store i32 %3, ptr %6, align 4
  call void @llvm.lifetime.start.p0(i64 48, ptr nonnull %7) #10
  %.not = icmp eq i32 %2, 0
  br i1 %.not, label %nvme_build_done_frame_key.exit, label %8

8:                                                ; preds = %4
  %.0.i.sroa.gep = getelementptr inbounds nuw i8, ptr %7, i64 16
  store i32 1, ptr %7, align 16
  %9 = getelementptr inbounds nuw i8, ptr %7, i64 8
  store ptr %5, ptr %9, align 8
  br label %nvme_build_done_frame_key.exit

nvme_build_done_frame_key.exit:                   ; preds = %4, %8
  %.0.i.sroa.phi = phi ptr [ %.0.i.sroa.gep, %8 ], [ %7, %4 ]
  store i32 1, ptr %.0.i.sroa.phi, align 8
  %10 = getelementptr inbounds nuw i8, ptr %.0.i.sroa.phi, i64 8
  store ptr %6, ptr %10, align 8
  %11 = getelementptr i8, ptr %.0.i.sroa.phi, i64 16
  store i32 0, ptr %11, align 8
  %12 = getelementptr i8, ptr %.0.i.sroa.phi, i64 24
  store ptr null, ptr %12, align 8
  %13 = getelementptr inbounds nuw i8, ptr %0, i64 24
  %14 = load ptr, ptr %13, align 8
  call void @wmem_tree_insert32_array(ptr noundef %14, ptr noundef nonnull %7, ptr noundef %1)
  call void @llvm.lifetime.end.p0(i64 48, ptr nonnull %7) #10
  ret void
}